target datalayout = "e-m:e-p270:32:32-p271:32:32-p272:64:64-i64:64-i128:128-f80:128-n8:16:32:64-S128"
target triple = "x86_64-pc-linux-gnu"

@.str.126 = private unnamed_addr constant [18 x i8] c"Allocating child.\00", align 1

; Function Attrs: mustprogress uwtable
define internal void @_ZZ28test_submodule_call_policiesRN8pybind117module_EEN5ChildC2Ev(ptr noundef nonnull align 1 dereferenceable(1) %0) unnamed_addr #1 align 2 {
  %2 = alloca ptr, align 8
  store ptr %0, ptr %2, align 8
  call void @_ZN8pybind115printILNS_19return_value_policyE1EJRA18_KcEEEvDpOT0_(ptr noundef nonnull align 1 dereferenceable(18) @.str.126)
  ret void
}

; Function Attrs: mustprogress uwtable
define internal noundef ptr @_ZZ28test_submodule_call_policiesRN8pybind117module_EEN6Parent14staticFunctionEPS2_(ptr noundef %0) #1 align 2 personality ptr @__gxx_personality_v0 {
  %2 = alloca ptr, align 8
  %3 = alloca ptr, align 8
  %4 = alloca i32, align 4
  store ptr %0, ptr %2, align 8
  %5 = call noalias noundef nonnull ptr @_Znwm(i64 noundef 1) #21
  invoke void @_ZZ28test_submodule_call_policiesRN8pybind117module_EEN5ChildC2Ev(ptr noundef nonnull align 1 dereferenceable(1) %5)
          to label %6 unwind label %7

6:                                                ; preds = %1
  ret ptr %5

7:                                                ; preds = %1
  %8 = landingpad { ptr, i32 }
          cleanup
  %9 = extractvalue { ptr, i32 } %8, 0
  store ptr %9, ptr %3, align 8
  %10 = extractvalue { ptr, i32 } %8, 1
  store i32 %10, ptr %4, align 4
  call void @_ZdlPv(ptr noundef %5) #22
  br label %11

11:                                               ; preds = %7
  %12 = load ptr, ptr %3, align 8
  %13 = load i32, ptr %4, align 4
  %14 = insertvalue { ptr, i32 } poison, ptr %12, 0
  %15 = insertvalue { ptr, i32 } %14, i32 %13, 1
  resume { ptr, i32 } %15
}