; Function Attrs: mustprogress uwtable
define internal noundef nonnull ptr @_ZZ28test_submodule_call_policiesRN8pybind117module_EEN6Parent14staticFunctionEPS2_(ptr nocapture readnone %0) #1 align 2 personality ptr @__gxx_personality_v0 {
  %2 = tail call noalias noundef nonnull dereferenceable(1) ptr @_Znwm(i64 noundef 1) #28
  invoke void @_ZN8pybind115printILNS_19return_value_policyE1EJRA18_KcEEEvDpOT0_(ptr noundef nonnull align 1 dereferenceable(18) @.str.126)
          to label %_ZZ28test_submodule_call_policiesRN8pybind117module_EEN5ChildC2Ev.exit unwind label %3

_ZZ28test_submodule_call_policiesRN8pybind117module_EEN5ChildC2Ev.exit: ; preds = %1
  ret ptr %2

3:                                                ; preds = %1
  %4 = landingpad { ptr, i32 }
          cleanup
  tail call void @_ZdlPv(ptr noundef nonnull %2) #29
  resume { ptr, i32 } %4
}